target datalayout = "e-m:e-p270:32:32-p271:32:32-p272:64:64-i64:64-i128:128-f80:128-n8:16:32:64-S128"
target triple = "x86_64-pc-linux-gnu"

%struct.lv_svg_attr_values_list_t = type { i32, [1 x i8] }
%struct._parse_value_list_context = type { i32, i32, ptr }

@.str.102 = private unnamed_addr constant [14 x i8] c"0123456789+-.\00", align 1

; Function Attrs: nounwind uwtable
define internal zeroext i1 @_is_number_begin(i8 noundef signext %0) #0 {
  %2 = alloca i8, align 1
  store i8 %0, ptr %2, align 1, !tbaa !18
  %3 = load i8, ptr %2, align 1, !tbaa !18
  %4 = sext i8 %3 to i32
  %5 = icmp ne i32 %4, 0
  br i1 %5, label %6, label %11

6:                                                ; preds = %1
  %7 = load i8, ptr %2, align 1, !tbaa !18
  %8 = sext i8 %7 to i32
  %9 = call ptr @strchr(ptr noundef @.str.102, i32 noundef %8) #10
  %10 = icmp ne ptr %9, null
  br label %11

11:                                               ; preds = %6, %1
  %12 = phi i1 [ false, %1 ], [ %10, %6 ]
  ret i1 %12
}

; Function Attrs: nounwind uwtable
define internal ptr @_parse_number(ptr noundef %0, ptr noundef %1, ptr noundef %2) #0 {
  %4 = alloca ptr, align 8
  %5 = alloca ptr, align 8
  %6 = alloca ptr, align 8
  %7 = alloca ptr, align 8
  %8 = alloca ptr, align 8
  store ptr %0, ptr %5, align 8, !tbaa !3
  store ptr %1, ptr %6, align 8, !tbaa !3
  store ptr %2, ptr %7, align 8, !tbaa !3
  %9 = load ptr, ptr %5, align 8, !tbaa !3
  %10 = icmp ne ptr %9, null
  br i1 %10, label %12, label %11

11:                                               ; preds = %3
  store ptr null, ptr %4, align 8
  br label %37

12:                                               ; preds = %3
  br label %13

13:                                               ; preds = %24, %12
  %14 = load ptr, ptr %5, align 8, !tbaa !3
  %15 = load ptr, ptr %6, align 8, !tbaa !3
  %16 = icmp ult ptr %14, %15
  br i1 %16, label %17, label %22

17:                                               ; preds = %13
  %18 = load ptr, ptr %5, align 8, !tbaa !3
  %19 = load i8, ptr %18, align 1, !tbaa !18
  %20 = call zeroext i1 @_is_number_begin(i8 noundef signext %19)
  %21 = xor i1 %20, true
  br label %22

22:                                               ; preds = %17, %13
  %23 = phi i1 [ false, %13 ], [ %21, %17 ]
  br i1 %23, label %24, label %27

24:                                               ; preds = %22
  %25 = load ptr, ptr %5, align 8, !tbaa !3
  %26 = getelementptr inbounds nuw i8, ptr %25, i32 1
  store ptr %26, ptr %5, align 8, !tbaa !3
  br label %13, !llvm.loop !83

27:                                               ; preds = %22
  %28 = load ptr, ptr %5, align 8, !tbaa !3
  %29 = load ptr, ptr %6, align 8, !tbaa !3
  %30 = icmp eq ptr %28, %29
  br i1 %30, label %31, label %32

31:                                               ; preds = %27
  store ptr null, ptr %4, align 8
  br label %37

32:                                               ; preds = %27
  call void @llvm.lifetime.start.p0(i64 8, ptr %8) #9
  store ptr null, ptr %8, align 8, !tbaa !3
  %33 = load ptr, ptr %5, align 8, !tbaa !3
  %34 = call float @strtof(ptr noundef %33, ptr noundef %8) #9
  %35 = load ptr, ptr %7, align 8, !tbaa !3
  store float %34, ptr %35, align 4, !tbaa !64
  %36 = load ptr, ptr %8, align 8, !tbaa !3
  store ptr %36, ptr %4, align 8
  call void @llvm.lifetime.end.p0(i64 8, ptr %8) #9
  br label %37

37:                                               ; preds = %32, %31, %11
  %38 = load ptr, ptr %4, align 8
  ret ptr %38
}

; Function Attrs: nounwind uwtable
define internal ptr @_parse_clock_time(ptr noundef %0, ptr noundef %1, ptr noundef %2) #0 {
  %4 = alloca ptr, align 8
  %5 = alloca ptr, align 8
  %6 = alloca ptr, align 8
  %7 = alloca ptr, align 8
  %8 = alloca i32, align 4
  store ptr %0, ptr %5, align 8, !tbaa !3
  store ptr %1, ptr %6, align 8, !tbaa !3
  store ptr %2, ptr %7, align 8, !tbaa !3
  %9 = load ptr, ptr %5, align 8, !tbaa !3
  %10 = load ptr, ptr %6, align 8, !tbaa !3
  %11 = load ptr, ptr %7, align 8, !tbaa !3
  %12 = call ptr @_parse_number(ptr noundef %9, ptr noundef %10, ptr noundef %11)
  store ptr %12, ptr %5, align 8, !tbaa !3
  %13 = load ptr, ptr %5, align 8, !tbaa !3
  %14 = icmp ne ptr %13, null
  br i1 %14, label %15, label %63

15:                                               ; preds = %3
  call void @llvm.lifetime.start.p0(i64 4, ptr %8) #9
  %16 = load ptr, ptr %6, align 8, !tbaa !3
  %17 = load ptr, ptr %5, align 8, !tbaa !3
  %18 = ptrtoint ptr %16 to i64
  %19 = ptrtoint ptr %17 to i64
  %20 = sub i64 %18, %19
  %21 = trunc i64 %20 to i32
  store i32 %21, ptr %8, align 4, !tbaa !23
  %22 = load i32, ptr %8, align 4, !tbaa !23
  %23 = icmp ugt i32 %22, 0
  br i1 %23, label %24, label %51

24:                                               ; preds = %15
  %25 = load i32, ptr %8, align 4, !tbaa !23
  %26 = icmp uge i32 %25, 2
  br i1 %26, label %27, label %44

27:                                               ; preds = %24
  %28 = load ptr, ptr %5, align 8, !tbaa !3
  %29 = getelementptr inbounds i8, ptr %28, i64 0
  %30 = load i8, ptr %29, align 1, !tbaa !18
  %31 = sext i8 %30 to i32
  %32 = icmp eq i32 %31, 109
  br i1 %32, label %33, label %44

33:                                               ; preds = %27
  %34 = load ptr, ptr %5, align 8, !tbaa !3
  %35 = getelementptr inbounds i8, ptr %34, i64 1
  %36 = load i8, ptr %35, align 1, !tbaa !18
  %37 = sext i8 %36 to i32
  %38 = icmp eq i32 %37, 115
  br i1 %38, label %39, label %44

39:                                               ; preds = %33
  %40 = load ptr, ptr %7, align 8, !tbaa !3
  %41 = load float, ptr %40, align 4, !tbaa !64
  %42 = call float @llvm.round.f32(float %41)
  %43 = load ptr, ptr %7, align 8, !tbaa !3
  store float %42, ptr %43, align 4, !tbaa !64
  br label %50

44:                                               ; preds = %33, %27, %24
  %45 = load ptr, ptr %7, align 8, !tbaa !3
  %46 = load float, ptr %45, align 4, !tbaa !64
  %47 = fmul float %46, 1.000000e+03
  %48 = call float @llvm.round.f32(float %47)
  %49 = load ptr, ptr %7, align 8, !tbaa !3
  store float %48, ptr %49, align 4, !tbaa !64
  br label %50

50:                                               ; preds = %44, %39
  br label %57

51:                                               ; preds = %15
  %52 = load ptr, ptr %7, align 8, !tbaa !3
  %53 = load float, ptr %52, align 4, !tbaa !64
  %54 = fmul float %53, 1.000000e+03
  %55 = call float @llvm.round.f32(float %54)
  %56 = load ptr, ptr %7, align 8, !tbaa !3
  store float %55, ptr %56, align 4, !tbaa !64
  br label %57

57:                                               ; preds = %51, %50
  %58 = load i32, ptr %8, align 4, !tbaa !23
  %59 = load ptr, ptr %5, align 8, !tbaa !3
  %60 = zext i32 %58 to i64
  %61 = getelementptr inbounds nuw i8, ptr %59, i64 %60
  store ptr %61, ptr %5, align 8, !tbaa !3
  %62 = load ptr, ptr %5, align 8, !tbaa !3
  store ptr %62, ptr %4, align 8
  call void @llvm.lifetime.end.p0(i64 4, ptr %8) #9
  br label %70

63:                                               ; preds = %3
  %64 = load ptr, ptr %7, align 8, !tbaa !3
  %65 = load float, ptr %64, align 4, !tbaa !64
  %66 = fmul float %65, 1.000000e+03
  %67 = call float @llvm.round.f32(float %66)
  %68 = load ptr, ptr %7, align 8, !tbaa !3
  store float %67, ptr %68, align 4, !tbaa !64
  %69 = load ptr, ptr %5, align 8, !tbaa !3
  store ptr %69, ptr %4, align 8
  br label %70

70:                                               ; preds = %63, %57
  %71 = load ptr, ptr %4, align 8
  ret ptr %71
}

; Function Attrs: nounwind uwtable
define internal void @_anim_begin_end_cb(ptr noundef %0, ptr noundef %1, ptr noundef %2, ptr noundef %3, i32 noundef %4, ptr noundef %5) #0 {
  %7 = alloca ptr, align 8
  %8 = alloca ptr, align 8
  %9 = alloca ptr, align 8
  %10 = alloca ptr, align 8
  %11 = alloca i32, align 4
  %12 = alloca ptr, align 8
  %13 = alloca ptr, align 8
  %14 = alloca ptr, align 8
  %15 = alloca ptr, align 8
  %16 = alloca i32, align 4
  store ptr %0, ptr %7, align 8, !tbaa !3
  store ptr %1, ptr %8, align 8, !tbaa !3
  store ptr %2, ptr %9, align 8, !tbaa !3
  store ptr %3, ptr %10, align 8, !tbaa !3
  store i32 %4, ptr %11, align 4, !tbaa !23
  store ptr %5, ptr %12, align 8, !tbaa !3
  call void @llvm.lifetime.start.p0(i64 8, ptr %13) #9
  %17 = load ptr, ptr %12, align 8, !tbaa !3
  store ptr %17, ptr %13, align 8, !tbaa !3
  call void @llvm.lifetime.start.p0(i64 8, ptr %14) #9
  store ptr null, ptr %14, align 8, !tbaa !3
  br label %18

18:                                               ; preds = %6
  call void @llvm.lifetime.start.p0(i64 8, ptr %15) #9
  %19 = load ptr, ptr %13, align 8, !tbaa !3
  %20 = getelementptr inbounds nuw %struct._parse_value_list_context, ptr %19, i32 0, i32 2
  %21 = load ptr, ptr %20, align 8, !tbaa !81
  store ptr %21, ptr %15, align 8, !tbaa !3
  %22 = load ptr, ptr %15, align 8, !tbaa !3
  %23 = icmp ne ptr %22, null
  br i1 %23, label %54, label %24

24:                                               ; preds = %18
  %25 = load ptr, ptr %13, align 8, !tbaa !3
  %26 = getelementptr inbounds nuw %struct._parse_value_list_context, ptr %25, i32 0, i32 0
  store i32 20, ptr %26, align 8, !tbaa !97
  %27 = load ptr, ptr %13, align 8, !tbaa !3
  %28 = getelementptr inbounds nuw %struct._parse_value_list_context, ptr %27, i32 0, i32 0
  %29 = load i32, ptr %28, align 8, !tbaa !97
  %30 = zext i32 %29 to i64
  %31 = call ptr @lv_malloc_zeroed(i64 noundef %30)
  %32 = load ptr, ptr %13, align 8, !tbaa !3
  %33 = getelementptr inbounds nuw %struct._parse_value_list_context, ptr %32, i32 0, i32 2
  store ptr %31, ptr %33, align 8, !tbaa !81
  br label %34

34:                                               ; preds = %24
  %35 = load ptr, ptr %13, align 8, !tbaa !3
  %36 = getelementptr inbounds nuw %struct._parse_value_list_context, ptr %35, i32 0, i32 2
  %37 = load ptr, ptr %36, align 8, !tbaa !81
  %38 = icmp ne ptr %37, null
  br i1 %38, label %45, label %39

39:                                               ; preds = %34
  br label %40

40:                                               ; preds = %39
  br label %41

41:                                               ; preds = %40
  br label %42

42:                                               ; preds = %41
  br label %43

43:                                               ; preds = %44, %42
  br label %44

44:                                               ; preds = %43
  br label %43

45:                                               ; preds = %34
  br label %46

46:                                               ; preds = %45
  br label %47

47:                                               ; preds = %46
  %48 = load ptr, ptr %13, align 8, !tbaa !3
  %49 = getelementptr inbounds nuw %struct._parse_value_list_context, ptr %48, i32 0, i32 2
  %50 = load ptr, ptr %49, align 8, !tbaa !81
  %51 = getelementptr inbounds nuw %struct.lv_svg_attr_values_list_t, ptr %50, i32 0, i32 1
  store ptr %51, ptr %14, align 8, !tbaa !3
  %52 = load ptr, ptr %13, align 8, !tbaa !3
  %53 = getelementptr inbounds nuw %struct._parse_value_list_context, ptr %52, i32 0, i32 1
  store i32 1, ptr %53, align 4, !tbaa !98
  br label %117

54:                                               ; preds = %18
  call void @llvm.lifetime.start.p0(i64 4, ptr %16) #9
  %55 = load ptr, ptr %13, align 8, !tbaa !3
  %56 = getelementptr inbounds nuw %struct._parse_value_list_context, ptr %55, i32 0, i32 1
  %57 = load i32, ptr %56, align 4, !tbaa !98
  %58 = add i32 %57, 1
  %59 = zext i32 %58 to i64
  %60 = mul i64 4, %59
  %61 = add i64 %60, 4
  %62 = trunc i64 %61 to i32
  store i32 %62, ptr %16, align 4, !tbaa !23
  %63 = load ptr, ptr %13, align 8, !tbaa !3
  %64 = getelementptr inbounds nuw %struct._parse_value_list_context, ptr %63, i32 0, i32 0
  %65 = load i32, ptr %64, align 8, !tbaa !97
  %66 = load i32, ptr %16, align 4, !tbaa !23
  %67 = icmp ult i32 %65, %66
  br i1 %67, label %68, label %103

68:                                               ; preds = %54
  %69 = load ptr, ptr %13, align 8, !tbaa !3
  %70 = getelementptr inbounds nuw %struct._parse_value_list_context, ptr %69, i32 0, i32 1
  %71 = load i32, ptr %70, align 4, !tbaa !98
  %72 = shl i32 %71, 1
  %73 = zext i32 %72 to i64
  %74 = mul i64 %73, 4
  %75 = add i64 %74, 4
  %76 = trunc i64 %75 to i32
  %77 = load ptr, ptr %13, align 8, !tbaa !3
  %78 = getelementptr inbounds nuw %struct._parse_value_list_context, ptr %77, i32 0, i32 0
  store i32 %76, ptr %78, align 8, !tbaa !97
  %79 = load ptr, ptr %13, align 8, !tbaa !3
  %80 = getelementptr inbounds nuw %struct._parse_value_list_context, ptr %79, i32 0, i32 2
  %81 = load ptr, ptr %80, align 8, !tbaa !81
  %82 = load ptr, ptr %13, align 8, !tbaa !3
  %83 = getelementptr inbounds nuw %struct._parse_value_list_context, ptr %82, i32 0, i32 0
  %84 = load i32, ptr %83, align 8, !tbaa !97
  %85 = zext i32 %84 to i64
  %86 = call ptr @lv_realloc(ptr noundef %81, i64 noundef %85)
  %87 = load ptr, ptr %13, align 8, !tbaa !3
  %88 = getelementptr inbounds nuw %struct._parse_value_list_context, ptr %87, i32 0, i32 2
  store ptr %86, ptr %88, align 8, !tbaa !81
  br label %89

89:                                               ; preds = %68
  %90 = load ptr, ptr %13, align 8, !tbaa !3
  %91 = getelementptr inbounds nuw %struct._parse_value_list_context, ptr %90, i32 0, i32 2
  %92 = load ptr, ptr %91, align 8, !tbaa !81
  %93 = icmp ne ptr %92, null
  br i1 %93, label %100, label %94

94:                                               ; preds = %89
  br label %95

95:                                               ; preds = %94
  br label %96

96:                                               ; preds = %95
  br label %97

97:                                               ; preds = %96
  br label %98

98:                                               ; preds = %99, %97
  br label %99

99:                                               ; preds = %98
  br label %98

100:                                              ; preds = %89
  br label %101

101:                                              ; preds = %100
  br label %102

102:                                              ; preds = %101
  br label %103

103:                                              ; preds = %102, %54
  %104 = load ptr, ptr %13, align 8, !tbaa !3
  %105 = getelementptr inbounds nuw %struct._parse_value_list_context, ptr %104, i32 0, i32 2
  %106 = load ptr, ptr %105, align 8, !tbaa !81
  %107 = getelementptr inbounds nuw %struct.lv_svg_attr_values_list_t, ptr %106, i32 0, i32 1
  %108 = load ptr, ptr %13, align 8, !tbaa !3
  %109 = getelementptr inbounds nuw %struct._parse_value_list_context, ptr %108, i32 0, i32 1
  %110 = load i32, ptr %109, align 4, !tbaa !98
  %111 = zext i32 %110 to i64
  %112 = getelementptr inbounds nuw float, ptr %107, i64 %111
  store ptr %112, ptr %14, align 8, !tbaa !3
  %113 = load ptr, ptr %13, align 8, !tbaa !3
  %114 = getelementptr inbounds nuw %struct._parse_value_list_context, ptr %113, i32 0, i32 1
  %115 = load i32, ptr %114, align 4, !tbaa !98
  %116 = add i32 %115, 1
  store i32 %116, ptr %114, align 4, !tbaa !98
  call void @llvm.lifetime.end.p0(i64 4, ptr %16) #9
  br label %117

117:                                              ; preds = %103, %47
  call void @llvm.lifetime.end.p0(i64 8, ptr %15) #9
  br label %118

118:                                              ; preds = %117
  br label %119

119:                                              ; preds = %118
  %120 = load ptr, ptr %9, align 8, !tbaa !3
  %121 = load ptr, ptr %10, align 8, !tbaa !3
  %122 = load ptr, ptr %14, align 8, !tbaa !3
  %123 = call ptr @_parse_clock_time(ptr noundef %120, ptr noundef %121, ptr noundef %122)
  store ptr %123, ptr %9, align 8, !tbaa !3
  %124 = load ptr, ptr %13, align 8, !tbaa !3
  %125 = getelementptr inbounds nuw %struct._parse_value_list_context, ptr %124, i32 0, i32 1
  %126 = load i32, ptr %125, align 4, !tbaa !98
  %127 = load ptr, ptr %13, align 8, !tbaa !3
  %128 = getelementptr inbounds nuw %struct._parse_value_list_context, ptr %127, i32 0, i32 2
  %129 = load ptr, ptr %128, align 8, !tbaa !81
  %130 = getelementptr inbounds nuw %struct.lv_svg_attr_values_list_t, ptr %129, i32 0, i32 0
  store i32 %126, ptr %130, align 4, !tbaa !70
  call void @llvm.lifetime.end.p0(i64 8, ptr %14) #9
  call void @llvm.lifetime.end.p0(i64 8, ptr %13) #9
  ret void
}