; Function Attrs: nounwind uwtable
define internal fastcc void @_anim_begin_end_cb(ptr noundef %0, ptr noundef %1, ptr nocapture noundef %2) unnamed_addr #0 {
  %4 = alloca ptr, align 8
  %5 = getelementptr inbounds nuw i8, ptr %2, i64 8
  %6 = load ptr, ptr %5, align 8, !tbaa !80
  %.not = icmp eq ptr %6, null
  br i1 %.not, label %7, label %12

7:                                                ; preds = %3
  store i32 20, ptr %2, align 8, !tbaa !90
  %8 = tail call ptr @lv_malloc_zeroed(i64 noundef 20) #14
  store ptr %8, ptr %5, align 8, !tbaa !80
  %.not26 = icmp eq ptr %8, null
  br i1 %.not26, label %.preheader, label %9

.preheader:                                       ; preds = %7, %.preheader
  br label %.preheader

9:                                                ; preds = %7
  %10 = getelementptr inbounds nuw i8, ptr %8, i64 4
  %11 = getelementptr inbounds nuw i8, ptr %2, i64 4
  store i32 1, ptr %11, align 4, !tbaa !91
  br label %31

12:                                               ; preds = %3
  %13 = getelementptr inbounds nuw i8, ptr %2, i64 4
  %14 = load i32, ptr %13, align 4, !tbaa !91
  %15 = shl i32 %14, 2
  %16 = add i32 %15, 8
  %17 = load i32, ptr %2, align 8, !tbaa !90
  %18 = icmp ult i32 %17, %16
  br i1 %18, label %19, label %24

19:                                               ; preds = %12
  %20 = shl i32 %14, 3
  %21 = or disjoint i32 %20, 4
  store i32 %21, ptr %2, align 8, !tbaa !90
  %22 = zext i32 %21 to i64
  %23 = tail call ptr @lv_realloc(ptr noundef nonnull %6, i64 noundef %22) #14
  store ptr %23, ptr %5, align 8, !tbaa !80
  %.not27 = icmp eq ptr %23, null
  br i1 %.not27, label %.preheader28, label %._crit_edge

._crit_edge:                                      ; preds = %19
  %.pre = load i32, ptr %13, align 4, !tbaa !91
  br label %24

.preheader28:                                     ; preds = %19, %.preheader28
  br label %.preheader28

24:                                               ; preds = %._crit_edge, %12
  %25 = phi i32 [ %.pre, %._crit_edge ], [ %14, %12 ]
  %26 = phi ptr [ %23, %._crit_edge ], [ %6, %12 ]
  %27 = getelementptr inbounds nuw i8, ptr %26, i64 4
  %28 = zext i32 %25 to i64
  %29 = getelementptr inbounds nuw float, ptr %27, i64 %28
  %30 = add i32 %25, 1
  store i32 %30, ptr %13, align 4, !tbaa !91
  br label %31

31:                                               ; preds = %24, %9
  %.0 = phi ptr [ %29, %24 ], [ %10, %9 ]
  %32 = ptrtoint ptr %0 to i64
  %33 = ptrtoint ptr %1 to i64
  %.not.i.i = icmp eq ptr %0, null
  br i1 %.not.i.i, label %_parse_number.exit.thread.i, label %.preheader.i.i

.preheader.i.i:                                   ; preds = %31
  %34 = icmp ult ptr %0, %1
  br i1 %34, label %.lr.ph.preheader.i.i, label %.critedge.i.i

.lr.ph.preheader.i.i:                             ; preds = %.preheader.i.i
  %35 = sub i64 %33, %32
  %scevgep.i.i = getelementptr i8, ptr %0, i64 %35
  br label %.lr.ph.i.i

.lr.ph.i.i:                                       ; preds = %_is_number_begin.exit.thread.i.i, %.lr.ph.preheader.i.i
  %.01012.i.i = phi ptr [ %40, %_is_number_begin.exit.thread.i.i ], [ %0, %.lr.ph.preheader.i.i ]
  %36 = load i8, ptr %.01012.i.i, align 1, !tbaa !31
  %.not.i.i.i = icmp eq i8 %36, 0
  br i1 %.not.i.i.i, label %_is_number_begin.exit.thread.i.i, label %_is_number_begin.exit.i.i

_is_number_begin.exit.i.i:                        ; preds = %.lr.ph.i.i
  %37 = zext nneg i8 %36 to i64
  %memchr.bounds.i.i.i = icmp ult i8 %36, 64
  %38 = shl nuw i64 1, %37
  %39 = and i64 %38, 288063250384289793
  %memchr.bits.i.i.i = icmp ne i64 %39, 0
  %memchr2.i.i.i = select i1 %memchr.bounds.i.i.i, i1 %memchr.bits.i.i.i, i1 false
  br i1 %memchr2.i.i.i, label %.critedge.i.i, label %_is_number_begin.exit.thread.i.i

_is_number_begin.exit.thread.i.i:                 ; preds = %_is_number_begin.exit.i.i, %.lr.ph.i.i
  %40 = getelementptr inbounds nuw i8, ptr %.01012.i.i, i64 1
  %exitcond.not.i.i = icmp eq ptr %40, %1
  br i1 %exitcond.not.i.i, label %.critedge.i.i, label %.lr.ph.i.i, !llvm.loop !56

.critedge.i.i:                                    ; preds = %_is_number_begin.exit.thread.i.i, %_is_number_begin.exit.i.i, %.preheader.i.i
  %.010.lcssa.i.i = phi ptr [ %0, %.preheader.i.i ], [ %scevgep.i.i, %_is_number_begin.exit.thread.i.i ], [ %.01012.i.i, %_is_number_begin.exit.i.i ]
  %41 = icmp eq ptr %.010.lcssa.i.i, %1
  br i1 %41, label %_parse_number.exit.thread.i, label %_parse_number.exit.i

_parse_number.exit.i:                             ; preds = %.critedge.i.i
  call void @llvm.lifetime.start.p0(i64 8, ptr nonnull %4) #14
  store ptr null, ptr %4, align 8, !tbaa !46
  %42 = call float @strtof(ptr noundef nonnull %.010.lcssa.i.i, ptr noundef nonnull %4) #14
  store float %42, ptr %.0, align 4, !tbaa !57
  %43 = load ptr, ptr %4, align 8, !tbaa !46
  call void @llvm.lifetime.end.p0(i64 8, ptr nonnull %4) #14
  %.not.i = icmp eq ptr %43, null
  br i1 %.not.i, label %_parse_number.exit.thread.i, label %44

44:                                               ; preds = %_parse_number.exit.i
  %45 = ptrtoint ptr %43 to i64
  %46 = sub i64 %33, %45
  %47 = trunc i64 %46 to i32
  switch i32 %47, label %48 [
    i32 0, label %57
    i32 1, label %55
  ]

48:                                               ; preds = %44
  %49 = load i8, ptr %43, align 1, !tbaa !31
  %50 = icmp eq i8 %49, 109
  br i1 %50, label %51, label %55

51:                                               ; preds = %48
  %52 = getelementptr inbounds i8, ptr %43, i64 1
  %53 = load i8, ptr %52, align 1, !tbaa !31
  %54 = icmp eq i8 %53, 115
  br i1 %54, label %_parse_clock_time.exit, label %55

55:                                               ; preds = %51, %48, %44
  %56 = fmul float %42, 1.000000e+03
  br label %_parse_clock_time.exit

57:                                               ; preds = %44
  %58 = fmul float %42, 1.000000e+03
  br label %_parse_clock_time.exit

_parse_number.exit.thread.i:                      ; preds = %_parse_number.exit.i, %.critedge.i.i, %31
  %59 = load float, ptr %.0, align 4, !tbaa !57
  %60 = fmul float %59, 1.000000e+03
  br label %_parse_clock_time.exit

_parse_clock_time.exit:                           ; preds = %51, %55, %57, %_parse_number.exit.thread.i
  %.sink29.i.sink = phi float [ %60, %_parse_number.exit.thread.i ], [ %56, %55 ], [ %58, %57 ], [ %42, %51 ]
  %61 = tail call float @llvm.round.f32(float %.sink29.i.sink)
  store float %61, ptr %.0, align 4, !tbaa !57
  %62 = getelementptr inbounds nuw i8, ptr %2, i64 4
  %63 = load i32, ptr %62, align 4, !tbaa !91
  %64 = load ptr, ptr %5, align 8, !tbaa !80
  store i32 %63, ptr %64, align 4, !tbaa !66
  ret void
}